; ModuleID = 'source-C-CXX/26/470.c'
source_filename = "source-C-CXX/26/470.c"
target datalayout = "e-m:e-p270:32:32-p271:32:32-p272:64:64-i64:64-f80:128-n8:16:32:64-S128"
target triple = "x86_64-pc-linux-gnu"

@.str = private unnamed_addr constant [3 x i8] c"%d\00", align 1
@.str.1 = private unnamed_addr constant [9 x i8] c"%f %f %f\00", align 1
@.str.2 = private unnamed_addr constant [12 x i8] c"x1=x2=%.5f\0A\00", align 1
@.str.3 = private unnamed_addr constant [17 x i8] c"x1=%.5f;x2=%.5f\0A\00", align 1
@.str.4 = private unnamed_addr constant [29 x i8] c"x1=%.5f+%.5fi;x2=%.5f-%.5fi\0A\00", align 1
@.str.5 = private unnamed_addr constant [29 x i8] c"x1=%.5f-%.5fi;x2=%.5f+%.5fi\0A\00", align 1

; Function Attrs: nofree nounwind sspstrong uwtable
define dso_local i32 @main() local_unnamed_addr #0 {
  %1 = alloca i32, align 4
  %2 = alloca float, align 4
  %3 = alloca float, align 4
  %4 = alloca float, align 4
  %5 = bitcast i32* %1 to i8*
  call void @llvm.lifetime.start.p0i8(i64 4, i8* nonnull %5) #4
  %6 = bitcast float* %2 to i8*
  call void @llvm.lifetime.start.p0i8(i64 4, i8* nonnull %6) #4
  %7 = bitcast float* %3 to i8*
  call void @llvm.lifetime.start.p0i8(i64 4, i8* nonnull %7) #4
  %8 = bitcast float* %4 to i8*
  call void @llvm.lifetime.start.p0i8(i64 4, i8* nonnull %8) #4
  %9 = call i32 (i8*, ...) @__isoc99_scanf(i8* getelementptr inbounds ([3 x i8], [3 x i8]* @.str, i64 0, i64 0), i32* nonnull %1)
  %10 = load i32, i32* %1, align 4, !tbaa !5
  %11 = icmp sgt i32 %10, 0
  br i1 %11, label %12, label %76

12:                                               ; preds = %0, %72
  %13 = phi i32 [ %73, %72 ], [ 0, %0 ]
  store float 0.000000e+00, float* %4, align 4, !tbaa !9
  store float 0.000000e+00, float* %3, align 4, !tbaa !9
  store float 0.000000e+00, float* %2, align 4, !tbaa !9
  %14 = call i32 (i8*, ...) @__isoc99_scanf(i8* getelementptr inbounds ([9 x i8], [9 x i8]* @.str.1, i64 0, i64 0), float* nonnull %2, float* nonnull %3, float* nonnull %4)
  %15 = load float, float* %3, align 4, !tbaa !9
  %16 = fmul float %15, %15
  %17 = load float, float* %2, align 4, !tbaa !9
  %18 = fmul float %17, 4.000000e+00
  %19 = load float, float* %4, align 4, !tbaa !9
  %20 = fmul float %18, %19
  %21 = fsub float %16, %20
  %22 = fpext float %21 to double
  %23 = fptosi float %21 to i32
  %24 = icmp eq i32 %23, 0
  br i1 %24, label %25, label %31

25:                                               ; preds = %12
  %26 = fneg float %15
  %27 = fmul float %17, 2.000000e+00
  %28 = fdiv float %26, %27
  %29 = fpext float %28 to double
  %30 = call i32 (i8*, ...) @printf(i8* nonnull dereferenceable(1) getelementptr inbounds ([12 x i8], [12 x i8]* @.str.2, i64 0, i64 0), double %29)
  br label %72

31:                                               ; preds = %12
  %32 = fcmp ogt float %21, 0.000000e+00
  %33 = fneg float %15
  br i1 %32, label %34, label %52

34:                                               ; preds = %31
  %35 = fpext float %33 to double
  %36 = call double @sqrt(double %22) #4
  %37 = fadd double %36, %35
  %38 = load float, float* %2, align 4, !tbaa !9
  %39 = fmul float %38, 2.000000e+00
  %40 = fpext float %39 to double
  %41 = fdiv double %37, %40
  %42 = load float, float* %3, align 4, !tbaa !9
  %43 = fneg float %42
  %44 = fpext float %43 to double
  %45 = call double @sqrt(double %22) #4
  %46 = fsub double %44, %45
  %47 = load float, float* %2, align 4, !tbaa !9
  %48 = fmul float %47, 2.000000e+00
  %49 = fpext float %48 to double
  %50 = fdiv double %46, %49
  %51 = call i32 (i8*, ...) @printf(i8* nonnull dereferenceable(1) getelementptr inbounds ([17 x i8], [17 x i8]* @.str.3, i64 0, i64 0), double %41, double %50)
  br label %72

52:                                               ; preds = %31
  %53 = fmul float %17, 2.000000e+00
  %54 = fdiv float %33, %53
  %55 = fpext float %54 to double
  %56 = fcmp olt double %55, 1.000000e-05
  %57 = fcmp ogt double %55, -1.000000e-05
  %58 = and i1 %56, %57
  %59 = select i1 %58, double 0.000000e+00, double %55
  %60 = fneg double %22
  %61 = call double @sqrt(double %60) #4
  %62 = load float, float* %2, align 4, !tbaa !9
  %63 = fmul float %62, 2.000000e+00
  %64 = fpext float %63 to double
  %65 = fdiv double %61, %64
  %66 = fcmp ogt double %65, 0.000000e+00
  br i1 %66, label %67, label %69

67:                                               ; preds = %52
  %68 = call i32 (i8*, ...) @printf(i8* nonnull dereferenceable(1) getelementptr inbounds ([29 x i8], [29 x i8]* @.str.4, i64 0, i64 0), double %59, double %65, double %59, double %65)
  br label %72

69:                                               ; preds = %52
  %70 = fneg double %65
  %71 = call i32 (i8*, ...) @printf(i8* nonnull dereferenceable(1) getelementptr inbounds ([29 x i8], [29 x i8]* @.str.5, i64 0, i64 0), double %59, double %70, double %59, double %70)
  br label %72

72:                                               ; preds = %25, %67, %69, %34
  %73 = add nuw nsw i32 %13, 1
  %74 = load i32, i32* %1, align 4, !tbaa !5
  %75 = icmp slt i32 %73, %74
  br i1 %75, label %12, label %76, !llvm.loop !11

76:                                               ; preds = %72, %0
  call void @llvm.lifetime.end.p0i8(i64 4, i8* nonnull %8) #4
  call void @llvm.lifetime.end.p0i8(i64 4, i8* nonnull %7) #4
  call void @llvm.lifetime.end.p0i8(i64 4, i8* nonnull %6) #4
  call void @llvm.lifetime.end.p0i8(i64 4, i8* nonnull %5) #4
  ret i32 0
}

; Function Attrs: argmemonly mustprogress nofree nosync nounwind willreturn
declare void @llvm.lifetime.start.p0i8(i64 immarg, i8* nocapture) #1

; Function Attrs: nofree nounwind
declare noundef i32 @__isoc99_scanf(i8* nocapture noundef readonly, ...) local_unnamed_addr #2

; Function Attrs: nofree nounwind
declare noundef i32 @printf(i8* nocapture noundef readonly, ...) local_unnamed_addr #2

; Function Attrs: mustprogress nofree nounwind willreturn
declare double @sqrt(double) local_unnamed_addr #3

; Function Attrs: argmemonly mustprogress nofree nosync nounwind willreturn
declare void @llvm.lifetime.end.p0i8(i64 immarg, i8* nocapture) #1


!llvm.module.flags = !{!0, !1, !2, !3}
!llvm.ident = !{!4}

!0 = !{i32 1, !"wchar_size", i32 4}
!1 = !{i32 7, !"PIC Level", i32 2}
!2 = !{i32 7, !"PIE Level", i32 2}
!3 = !{i32 7, !"uwtable", i32 1}
!4 = !{!"clang version 13.0.0"}
!5 = !{!6, !6, i64 0}
!6 = !{!"int", !7, i64 0}
!7 = !{!"omnipotent char", !8, i64 0}
!8 = !{!"Simple C/C++ TBAA"}
!9 = !{!10, !10, i64 0}
!10 = !{!"float", !7, i64 0}
!11 = distinct !{!11, !12}
!12 = !{!"llvm.loop.mustprogress"}
